#include <math.h>
#include <stdio.h>
#include <stdlib.h>
#include <string.h>


int main()
{
	int i,a,n,t;
	int f[25]={1,1};
	int b[20];
	scanf("%d",&n);
	for(i=2;i<25;i++)
    f[i]=f[i-2]+f[i-1];
	for(i=0;i<n;i++){
	scanf("%d",&a);
	b[i]=a-1;}
    for(i=0;i<n;i++)
	{
		t=b[i];
		printf("%d\n",f[t]);}
}
